target datalayout = "e-m:e-p270:32:32-p271:32:32-p272:64:64-i64:64-i128:128-f80:128-n8:16:32:64-S128"
target triple = "x86_64-pc-linux-gnu"

; Function Attrs: mustprogress uwtable
define dso_local void @_ZN24btMultiBodyDynamicsWorld9serializeEP12btSerializer(ptr noundef nonnull align 8 dereferenceable(848) %0, ptr noundef %1) unnamed_addr #2 align 2 {
  %3 = alloca ptr, align 8
  %4 = alloca ptr, align 8
  store ptr %0, ptr %3, align 8, !tbaa !12
  store ptr %1, ptr %4, align 8, !tbaa !285
  %5 = load ptr, ptr %3, align 8
  %6 = load ptr, ptr %4, align 8, !tbaa !285
  %7 = load ptr, ptr %6, align 8, !tbaa !45
  %8 = getelementptr inbounds ptr, ptr %7, i64 8
  %9 = load ptr, ptr %8, align 8
  call void %9(ptr noundef nonnull align 8 dereferenceable(8) %6)
  %10 = load ptr, ptr %4, align 8, !tbaa !285
  call void @_ZN23btDiscreteDynamicsWorld26serializeDynamicsWorldInfoEP12btSerializer(ptr noundef nonnull align 8 dereferenceable(508) %5, ptr noundef %10)
  %11 = load ptr, ptr %4, align 8, !tbaa !285
  %12 = load ptr, ptr %5, align 8, !tbaa !45
  %13 = getelementptr inbounds ptr, ptr %12, i64 48
  %14 = load ptr, ptr %13, align 8
  call void %14(ptr noundef nonnull align 8 dereferenceable(848) %5, ptr noundef %11)
  %15 = load ptr, ptr %4, align 8, !tbaa !285
  call void @_ZN23btDiscreteDynamicsWorld20serializeRigidBodiesEP12btSerializer(ptr noundef nonnull align 8 dereferenceable(508) %5, ptr noundef %15)
  %16 = load ptr, ptr %4, align 8, !tbaa !285
  call void @_ZN16btCollisionWorld25serializeCollisionObjectsEP12btSerializer(ptr noundef nonnull align 8 dereferenceable(121) %5, ptr noundef %16)
  %17 = load ptr, ptr %4, align 8, !tbaa !285
  call void @_ZN16btCollisionWorld25serializeContactManifoldsEP12btSerializer(ptr noundef nonnull align 8 dereferenceable(121) %5, ptr noundef %17)
  %18 = load ptr, ptr %4, align 8, !tbaa !285
  %19 = load ptr, ptr %18, align 8, !tbaa !45
  %20 = getelementptr inbounds ptr, ptr %19, i64 9
  %21 = load ptr, ptr %20, align 8
  call void %21(ptr noundef nonnull align 8 dereferenceable(8) %18)
  ret void
}