; Function Attrs: mustprogress uwtable
define dso_local void @_ZN24btMultiBodyDynamicsWorld9serializeEP12btSerializer(ptr noundef nonnull align 8 dereferenceable(848) %0, ptr noundef %1) unnamed_addr #0 align 2 {
  %3 = load ptr, ptr %1, align 8, !tbaa !105
  %4 = getelementptr inbounds nuw i8, ptr %3, i64 64
  %5 = load ptr, ptr %4, align 8
  tail call void %5(ptr noundef nonnull align 8 dereferenceable(8) %1)
  tail call void @_ZN23btDiscreteDynamicsWorld26serializeDynamicsWorldInfoEP12btSerializer(ptr noundef nonnull align 8 dereferenceable(508) %0, ptr noundef nonnull %1)
  %6 = load ptr, ptr %0, align 8, !tbaa !105
  %7 = getelementptr inbounds nuw i8, ptr %6, i64 384
  %8 = load ptr, ptr %7, align 8
  tail call void %8(ptr noundef nonnull align 8 dereferenceable(848) %0, ptr noundef nonnull %1)
  tail call void @_ZN23btDiscreteDynamicsWorld20serializeRigidBodiesEP12btSerializer(ptr noundef nonnull align 8 dereferenceable(508) %0, ptr noundef nonnull %1)
  tail call void @_ZN16btCollisionWorld25serializeCollisionObjectsEP12btSerializer(ptr noundef nonnull align 8 dereferenceable(121) %0, ptr noundef nonnull %1)
  tail call void @_ZN16btCollisionWorld25serializeContactManifoldsEP12btSerializer(ptr noundef nonnull align 8 dereferenceable(121) %0, ptr noundef nonnull %1)
  %9 = load ptr, ptr %1, align 8, !tbaa !105
  %10 = getelementptr inbounds nuw i8, ptr %9, i64 72
  %11 = load ptr, ptr %10, align 8
  tail call void %11(ptr noundef nonnull align 8 dereferenceable(8) %1)
  ret void
}